Certificate:
    Data:
        Version: 3 (0x2)
        Serial Number: 8 (0x8)
        Signature Algorithm: sha1WithRSAEncryption
        Issuer: C=US, ST=CA, L=Sunnyvale, O=Dymium Io, OU=Engineering, CN=Dymium CA/emailAddress=igor@dymium.io
        Validity
            Not Before: Oct 13 21:23:48 2022 GMT
            Not After : Oct 13 21:23:48 2023 GMT
        Subject: CN=DymiumTestSigning
        Subject Public Key Info:
            Public Key Algorithm: rsaEncryption
                RSA Public-Key: (4096 bit)
                Modulus:
                    00:e5:31:f4:64:c7:fe:38:21:eb:68:9b:16:6f:73:
                    3e:7b:8d:81:c6:fa:4f:9e:ed:10:9d:03:37:72:10:
                    c5:8c:df:18:9a:d1:29:27:32:80:99:3a:97:89:a5:
                    09:80:c5:e2:54:c7:8b:a9:5f:5e:e6:1a:52:ea:44:
                    21:f4:4c:a0:90:f2:59:67:75:30:c2:96:fa:7e:18:
                    a4:aa:a8:ec:99:7a:40:fc:f9:76:cb:6c:84:28:52:
                    98:9c:4a:a7:28:09:a0:cc:dd:49:06:17:e2:88:39:
                    a1:ff:93:50:10:e5:7b:4b:9c:92:da:48:25:80:ca:
                    ef:5a:7d:7a:96:a8:24:24:74:66:cb:3f:90:64:27:
                    0d:4e:80:be:2a:49:f7:58:c2:a1:b0:94:6e:0e:da:
                    8a:8f:c0:55:5f:36:56:f6:31:f6:c5:9e:76:95:10:
                    ce:6c:48:27:e9:30:d5:81:ea:22:b6:b6:62:8a:76:
                    d1:f2:7d:d0:9c:fb:3c:b3:52:02:21:c7:27:0f:25:
                    6c:e2:47:d7:ff:33:eb:9e:d3:72:fc:a2:8b:11:73:
                    a1:04:94:0a:0f:06:60:7f:b6:b6:1b:29:0b:02:89:
                    e4:4a:f9:e8:44:1f:e1:cf:45:74:e7:0b:21:bb:89:
                    de:0f:7d:d3:05:99:ad:40:4f:ca:13:83:29:4e:b9:
                    9f:c0:7a:8c:63:2b:8f:74:b7:19:52:02:16:70:d8:
                    95:0b:83:0d:6f:58:27:b5:a0:1c:01:81:98:cf:68:
                    b6:cb:d7:5f:f3:10:c4:62:1f:75:4e:97:c8:ce:7f:
                    44:ac:df:12:00:23:e1:99:27:d5:ea:a9:3d:3a:9d:
                    92:93:13:e6:ae:5d:9f:23:19:bc:d7:ec:71:f2:a0:
                    bb:5f:db:87:06:e8:57:d2:97:bb:3d:ed:a8:48:ed:
                    0f:f2:4e:bb:c7:c1:4d:ab:d6:8b:2d:df:7b:24:89:
                    fa:06:8a:4c:c1:64:ed:8d:d5:f2:c6:b7:88:d4:33:
                    cd:fa:43:77:7b:a6:22:ce:4a:81:4e:5d:08:6d:78:
                    64:c9:91:3e:1d:bb:f0:91:8d:a2:e1:1f:21:92:b6:
                    f1:f9:47:19:19:60:7c:bd:cf:7a:df:2c:44:7c:7b:
                    0b:31:16:1b:24:cf:ba:7f:71:68:17:cf:d3:a0:0e:
                    1a:75:2d:e3:4b:05:e9:ef:05:f5:5b:80:e3:e8:a2:
                    2b:ed:8b:ef:74:d6:cd:60:66:7a:e8:cf:0e:b3:97:
                    ed:99:f7:bc:72:d0:97:1c:8d:fd:63:58:7f:55:6b:
                    02:ba:ef:c3:b7:ec:94:f0:59:37:d6:24:1e:d0:90:
                    1c:d2:ea:55:48:bb:17:19:cd:b6:82:6b:45:df:67:
                    16:1f:09
                Exponent: 65537 (0x10001)
        X509v3 extensions:
            X509v3 Key Usage: 
                Digital Signature
            X509v3 Extended Key Usage: 
                Code Signing
    Signature Algorithm: sha1WithRSAEncryption
         a3:26:10:44:e2:3d:05:79:f7:2c:f9:21:0e:ea:a4:1b:34:9e:
         8d:04:a5:e4:17:7a:c7:aa:66:06:d9:17:9e:b0:02:83:f7:b0:
         db:ac:9f:26:bb:be:a4:62:61:e6:40:23:c6:98:46:97:d5:4b:
         88:4e:c4:e7:20:8a:ad:df:b1:58:85:07:46:c8:ce:d0:3c:c4:
         20:2b:05:0f:c2:4b:36:21:c7:42:ab:42:b4:e3:37:90:e5:38:
         16:0b:5a:fd:f8:30:eb:a7:62:1c:cf:05:c3:2c:f5:ee:52:64:
         24:ef:68:c4:e0:6c:b6:96:8a:1c:22:e2:40:3b:4a:23:73:95:
         a6:1b:b4:00:9a:9a:11:a5:9a:e0:16:ef:8f:58:60:b7:94:68:
         d2:db:fa:18:d4:f4:e0:28:bf:de:5a:a6:c8:be:f2:a8:9a:56:
         52:29:71:65:01:6c:ed:7d:e3:05:b9:72:06:18:29:e3:64:b8:
         7b:1a:9e:50:01:f0:e1:da:a7:e3:d8:51:36:12:11:fb:26:e2:
         5e:cb:92:31:71:d5:ab:da:61:04:5b:5b:e4:5d:af:75:88:87:
         d5:9f:e9:69:f9:a9:5b:63:15:85:3d:e4:37:21:c8:b6:3d:9e:
         55:c8:8e:cc:ad:9a:29:dc:c3:47:fe:8e:d9:26:11:a2:0e:82:
         36:56:05:85
-----BEGIN CERTIFICATE-----
MIIERzCCAy+gAwIBAgIBCDANBgkqhkiG9w0BAQUFADCBizELMAkGA1UEBhMCVVMx
CzAJBgNVBAgMAkNBMRIwEAYDVQQHDAlTdW5ueXZhbGUxEjAQBgNVBAoMCUR5bWl1
bSBJbzEUMBIGA1UECwwLRW5naW5lZXJpbmcxEjAQBgNVBAMMCUR5bWl1bSBDQTEd
MBsGCSqGSIb3DQEJARYOaWdvckBkeW1pdW0uaW8wHhcNMjIxMDEzMjEyMzQ4WhcN
MjMxMDEzMjEyMzQ4WjAcMRowGAYDVQQDDBFEeW1pdW1UZXN0U2lnbmluZzCCAiIw
DQYJKoZIhvcNAQEBBQADggIPADCCAgoCggIBAOUx9GTH/jgh62ibFm9zPnuNgcb6
T57tEJ0DN3IQxYzfGJrRKScygJk6l4mlCYDF4lTHi6lfXuYaUupEIfRMoJDyWWd1
MMKW+n4YpKqo7Jl6QPz5dstshChSmJxKpygJoMzdSQYX4og5of+TUBDle0ucktpI
JYDK71p9epaoJCR0Zss/kGQnDU6AvipJ91jCobCUbg7aio/AVV82VvYx9sWedpUQ
zmxIJ+kw1YHqIra2Yop20fJ90Jz7PLNSAiHHJw8lbOJH1/8z657TcvyiixFzoQSU
Cg8GYH+2thspCwKJ5Er56EQf4c9FdOcLIbuJ3g990wWZrUBPyhODKU65n8B6jGMr
j3S3GVICFnDYlQuDDW9YJ7WgHAGBmM9otsvXX/MQxGIfdU6XyM5/RKzfEgAj4Zkn
1eqpPTqdkpMT5q5dnyMZvNfscfKgu1/bhwboV9KXuz3tqEjtD/JOu8fBTavWiy3f
eySJ+gaKTMFk7Y3V8sa3iNQzzfpDd3umIs5KgU5dCG14ZMmRPh278JGNouEfIZK2
8flHGRlgfL3Pet8sRHx7CzEWGyTPun9xaBfP06AOGnUt40sF6e8F9VuA4+iiK+2L
73TWzWBmeujPDrOX7Zn3vHLQlxyN/WNYf1VrArrvw7fslPBZN9YkHtCQHNLqVUi7
FxnNtoJrRd9nFh8JAgMBAAGjJDAiMAsGA1UdDwQEAwIHgDATBgNVHSUEDDAKBggr
BgEFBQcDAzANBgkqhkiG9w0BAQUFAAOCAQEAoyYQROI9BXn3LPkhDuqkGzSejQSl
5Bd6x6pmBtkXnrACg/ew26yfJru+pGJh5kAjxphGl9VLiE7E5yCKrd+xWIUHRsjO
0DzEICsFD8JLNiHHQqtCtOM3kOU4Fgta/fgw66diHM8Fwyz17lJkJO9oxOBstpaK
HCLiQDtKI3OVphu0AJqaEaWa4Bbvj1hgt5Ro0tv6GNT04Ci/3lqmyL7yqJpWUilx
ZQFs7X3jBblyBhgp42S4exqeUAHw4dqn49hRNhIR+ybiXsuSMXHVq9phBFtb5F2v
dYiH1Z/pafmpW2MVhT3kNyHItj2eVciOzK2aKdzDR/6O2SYRog6CNlYFhQ==
-----END CERTIFICATE-----
